target datalayout = "e-m:e-p270:32:32-p271:32:32-p272:64:64-i64:64-i128:128-f80:128-n8:16:32:64-S128"
target triple = "x86_64-pc-linux-gnu"

%struct.doall_st = type { ptr, i64, ptr, i32, i32 }
%struct.index_cases_st = type { i64, ptr, i32 }

@.str.11 = private unnamed_addr constant [36 x i8] c"../openssl/test/sparse_array_test.c\00", align 1
@.str.12 = private unnamed_addr constant [24 x i8] c"sa = ossl_sa_char_new()\00", align 1
@.str.16 = private unnamed_addr constant [45 x i8] c"ossl_sa_char_set(sa, cases[i].n, cases[i].v)\00", align 1
@.str.32 = private unnamed_addr constant [24 x i8] c"failed at iteration %zu\00", align 1
@.str.33 = private unnamed_addr constant [28 x i8] c"while checking all elements\00", align 1
@.str.34 = private unnamed_addr constant [33 x i8] c"while deleting selected elements\00", align 1
@.str.35 = private unnamed_addr constant [36 x i8] c"while checking for deleted elements\00", align 1

; Function Attrs: inlinehint nounwind uwtable
define internal void @ossl_sa_char_free(ptr noundef %0) #3 {
  %2 = alloca ptr, align 8
  store ptr %0, ptr %2, align 8, !tbaa !8
  %3 = load ptr, ptr %2, align 8, !tbaa !8
  call void @ossl_sa_free(ptr noundef %3)
  ret void
}

; Function Attrs: inlinehint nounwind uwtable
define internal void @ossl_sa_char_doall_arg(ptr noundef %0, ptr noundef %1, ptr noundef %2) #3 {
  %4 = alloca ptr, align 8
  %5 = alloca ptr, align 8
  %6 = alloca ptr, align 8
  store ptr %0, ptr %4, align 8, !tbaa !8
  store ptr %1, ptr %5, align 8, !tbaa !37
  store ptr %2, ptr %6, align 8, !tbaa !37
  %7 = load ptr, ptr %4, align 8, !tbaa !8
  %8 = load ptr, ptr %5, align 8, !tbaa !37
  %9 = load ptr, ptr %6, align 8, !tbaa !37
  call void @ossl_sa_doall_arg(ptr noundef %7, ptr noundef %8, ptr noundef %9)
  ret void
}

; Function Attrs: inlinehint nounwind uwtable
define internal i32 @ossl_sa_char_set(ptr noundef %0, i64 noundef %1, ptr noundef %2) #3 {
  %4 = alloca ptr, align 8
  %5 = alloca i64, align 8
  %6 = alloca ptr, align 8
  store ptr %0, ptr %4, align 8, !tbaa !8
  store i64 %1, ptr %5, align 8, !tbaa !11
  store ptr %2, ptr %6, align 8, !tbaa !36
  %7 = load ptr, ptr %4, align 8, !tbaa !8
  %8 = load i64, ptr %5, align 8, !tbaa !11
  %9 = load ptr, ptr %6, align 8, !tbaa !36
  %10 = call i32 @ossl_sa_set(ptr noundef %7, i64 noundef %8, ptr noundef %9)
  ret i32 %10
}

; Function Attrs: inlinehint nounwind uwtable
define internal ptr @ossl_sa_char_new() #3 {
  %1 = call ptr @ossl_sa_new()
  ret ptr %1
}

; Function Attrs: nounwind uwtable
define internal i32 @test_sparse_array_doall() #0 {
  %1 = alloca %struct.doall_st, align 8
  %2 = alloca i64, align 8
  %3 = alloca ptr, align 8
  %4 = alloca i32, align 4
  call void @llvm.lifetime.start.p0(i64 32, ptr %1) #5
  call void @llvm.lifetime.start.p0(i64 8, ptr %2) #5
  call void @llvm.lifetime.start.p0(i64 8, ptr %3) #5
  store ptr null, ptr %3, align 8, !tbaa !8
  call void @llvm.lifetime.start.p0(i64 4, ptr %4) #5
  store i32 0, ptr %4, align 4, !tbaa !4
  %5 = call ptr @ossl_sa_char_new()
  store ptr %5, ptr %3, align 8, !tbaa !8
  %6 = call i32 @test_ptr(ptr noundef @.str.11, i32 noundef 155, ptr noundef @.str.12, ptr noundef %5)
  %7 = icmp ne i32 %6, 0
  br i1 %7, label %9, label %8

8:                                                ; preds = %0
  br label %61

9:                                                ; preds = %0
  %10 = getelementptr inbounds nuw %struct.doall_st, ptr %1, i32 0, i32 1
  store i64 8, ptr %10, align 8, !tbaa !25
  %11 = getelementptr inbounds nuw %struct.doall_st, ptr %1, i32 0, i32 2
  store ptr @test_sparse_array_doall.cases, ptr %11, align 8, !tbaa !28
  %12 = getelementptr inbounds nuw %struct.doall_st, ptr %1, i32 0, i32 4
  store i32 1, ptr %12, align 4, !tbaa !29
  %13 = getelementptr inbounds nuw %struct.doall_st, ptr %1, i32 0, i32 0
  store ptr null, ptr %13, align 8, !tbaa !30
  store i64 0, ptr %2, align 8, !tbaa !11
  br label %14

14:                                               ; preds = %36, %9
  %15 = load i64, ptr %2, align 8, !tbaa !11
  %16 = icmp ult i64 %15, 8
  br i1 %16, label %17, label %39

17:                                               ; preds = %14
  %18 = load ptr, ptr %3, align 8, !tbaa !8
  %19 = load i64, ptr %2, align 8, !tbaa !11
  %20 = getelementptr inbounds nuw [8 x %struct.index_cases_st], ptr @test_sparse_array_doall.cases, i64 0, i64 %19
  %21 = getelementptr inbounds nuw %struct.index_cases_st, ptr %20, i32 0, i32 0
  %22 = load i64, ptr %21, align 8, !tbaa !31
  %23 = load i64, ptr %2, align 8, !tbaa !11
  %24 = getelementptr inbounds nuw [8 x %struct.index_cases_st], ptr @test_sparse_array_doall.cases, i64 0, i64 %23
  %25 = getelementptr inbounds nuw %struct.index_cases_st, ptr %24, i32 0, i32 1
  %26 = load ptr, ptr %25, align 8, !tbaa !33
  %27 = call i32 @ossl_sa_char_set(ptr noundef %18, i64 noundef %22, ptr noundef %26)
  %28 = icmp ne i32 %27, 0
  %29 = zext i1 %28 to i32
  %30 = call i32 @test_true(ptr noundef @.str.11, i32 noundef 162, ptr noundef @.str.16, i32 noundef %29)
  %31 = icmp ne i32 %30, 0
  br i1 %31, label %35, label %32

32:                                               ; preds = %17
  %33 = load i64, ptr %2, align 8, !tbaa !11
  %34 = add i64 %33, 1
  call void (ptr, ...) @test_note(ptr noundef @.str.32, i64 noundef %34)
  br label %61

35:                                               ; preds = %17
  br label %36

36:                                               ; preds = %35
  %37 = load i64, ptr %2, align 8, !tbaa !11
  %38 = add i64 %37, 1
  store i64 %38, ptr %2, align 8, !tbaa !11
  br label %14, !llvm.loop !34

39:                                               ; preds = %14
  %40 = load ptr, ptr %3, align 8, !tbaa !8
  call void @ossl_sa_char_doall_arg(ptr noundef %40, ptr noundef @leaf_check_all, ptr noundef %1)
  %41 = getelementptr inbounds nuw %struct.doall_st, ptr %1, i32 0, i32 3
  %42 = load i32, ptr %41, align 8, !tbaa !35
  %43 = icmp eq i32 %42, 0
  br i1 %43, label %44, label %45

44:                                               ; preds = %39
  call void (ptr, i32, ptr, ...) @test_info(ptr noundef @.str.11, i32 noundef 169, ptr noundef @.str.33)
  br label %61

45:                                               ; preds = %39
  %46 = getelementptr inbounds nuw %struct.doall_st, ptr %1, i32 0, i32 4
  store i32 0, ptr %46, align 4, !tbaa !29
  %47 = load ptr, ptr %3, align 8, !tbaa !8
  %48 = getelementptr inbounds nuw %struct.doall_st, ptr %1, i32 0, i32 0
  store ptr %47, ptr %48, align 8, !tbaa !30
  %49 = load ptr, ptr %3, align 8, !tbaa !8
  call void @ossl_sa_char_doall_arg(ptr noundef %49, ptr noundef @leaf_delete, ptr noundef %1)
  %50 = getelementptr inbounds nuw %struct.doall_st, ptr %1, i32 0, i32 3
  %51 = load i32, ptr %50, align 8, !tbaa !35
  %52 = icmp eq i32 %51, 0
  br i1 %52, label %53, label %54

53:                                               ; preds = %45
  call void (ptr, i32, ptr, ...) @test_info(ptr noundef @.str.11, i32 noundef 176, ptr noundef @.str.34)
  br label %61

54:                                               ; preds = %45
  %55 = load ptr, ptr %3, align 8, !tbaa !8
  call void @ossl_sa_char_doall_arg(ptr noundef %55, ptr noundef @leaf_check_all, ptr noundef %1)
  %56 = getelementptr inbounds nuw %struct.doall_st, ptr %1, i32 0, i32 3
  %57 = load i32, ptr %56, align 8, !tbaa !35
  %58 = icmp eq i32 %57, 0
  br i1 %58, label %59, label %60

59:                                               ; preds = %54
  call void (ptr, i32, ptr, ...) @test_info(ptr noundef @.str.11, i32 noundef 181, ptr noundef @.str.35)
  br label %61

60:                                               ; preds = %54
  store i32 1, ptr %4, align 4, !tbaa !4
  br label %61

61:                                               ; preds = %60, %59, %53, %44, %32, %8
  %62 = load ptr, ptr %3, align 8, !tbaa !8
  call void @ossl_sa_char_free(ptr noundef %62)
  %63 = load i32, ptr %4, align 4, !tbaa !4
  call void @llvm.lifetime.end.p0(i64 4, ptr %4) #5
  call void @llvm.lifetime.end.p0(i64 8, ptr %3) #5
  call void @llvm.lifetime.end.p0(i64 8, ptr %2) #5
  call void @llvm.lifetime.end.p0(i64 32, ptr %1) #5
  ret i32 %63
}