; Function Attrs: nounwind uwtable
define internal range(i32 0, 2) i32 @test_sparse_array_doall() #0 {
  %1 = alloca %struct.doall_st, align 8
  call void @llvm.lifetime.start.p0(i64 32, ptr nonnull %1) #4
  %2 = tail call ptr @ossl_sa_new() #4
  %3 = tail call i32 @test_ptr(ptr noundef nonnull @.str.11, i32 noundef 155, ptr noundef nonnull @.str.12, ptr noundef %2) #4
  %.not = icmp eq i32 %3, 0
  br i1 %.not, label %33, label %4

4:                                                ; preds = %0
  %5 = getelementptr inbounds nuw i8, ptr %1, i64 8
  store i64 8, ptr %5, align 8, !tbaa !20
  %6 = getelementptr inbounds nuw i8, ptr %1, i64 16
  store ptr @test_sparse_array_doall.cases, ptr %6, align 8, !tbaa !25
  %7 = getelementptr inbounds nuw i8, ptr %1, i64 28
  store i32 1, ptr %7, align 4, !tbaa !26
  store ptr null, ptr %1, align 8, !tbaa !27
  br label %8

8:                                                ; preds = %4, %19
  %.01114 = phi i64 [ 0, %4 ], [ %17, %19 ]
  %9 = getelementptr inbounds nuw [8 x %struct.index_cases_st], ptr @test_sparse_array_doall.cases, i64 0, i64 %.01114
  %10 = load i64, ptr %9, align 8, !tbaa !28
  %11 = getelementptr inbounds nuw i8, ptr %9, i64 8
  %12 = load ptr, ptr %11, align 8, !tbaa !30
  %13 = tail call i32 @ossl_sa_set(ptr noundef %2, i64 noundef %10, ptr noundef %12) #4
  %14 = icmp ne i32 %13, 0
  %15 = zext i1 %14 to i32
  %16 = tail call i32 @test_true(ptr noundef nonnull @.str.11, i32 noundef 162, ptr noundef nonnull @.str.16, i32 noundef %15) #4
  %.not12 = icmp eq i32 %16, 0
  %17 = add nuw nsw i64 %.01114, 1
  br i1 %.not12, label %18, label %19

18:                                               ; preds = %8
  tail call void (ptr, ...) @test_note(ptr noundef nonnull @.str.32, i64 noundef %17) #4
  br label %33

19:                                               ; preds = %8
  %exitcond.not = icmp eq i64 %17, 8
  br i1 %exitcond.not, label %20, label %8, !llvm.loop !31

20:                                               ; preds = %19
  call void @ossl_sa_doall_arg(ptr noundef %2, ptr noundef nonnull @leaf_check_all, ptr noundef nonnull %1) #4
  %21 = getelementptr inbounds nuw i8, ptr %1, i64 24
  %22 = load i32, ptr %21, align 8, !tbaa !32
  %23 = icmp eq i32 %22, 0
  br i1 %23, label %24, label %25

24:                                               ; preds = %20
  call void (ptr, i32, ptr, ...) @test_info(ptr noundef nonnull @.str.11, i32 noundef 169, ptr noundef nonnull @.str.33) #4
  br label %33

25:                                               ; preds = %20
  store i32 0, ptr %7, align 4, !tbaa !26
  store ptr %2, ptr %1, align 8, !tbaa !27
  call void @ossl_sa_doall_arg(ptr noundef %2, ptr noundef nonnull @leaf_delete, ptr noundef nonnull %1) #4
  %26 = load i32, ptr %21, align 8, !tbaa !32
  %27 = icmp eq i32 %26, 0
  br i1 %27, label %28, label %29

28:                                               ; preds = %25
  call void (ptr, i32, ptr, ...) @test_info(ptr noundef nonnull @.str.11, i32 noundef 176, ptr noundef nonnull @.str.34) #4
  br label %33

29:                                               ; preds = %25
  call void @ossl_sa_doall_arg(ptr noundef %2, ptr noundef nonnull @leaf_check_all, ptr noundef nonnull %1) #4
  %30 = load i32, ptr %21, align 8, !tbaa !32
  %31 = icmp eq i32 %30, 0
  br i1 %31, label %32, label %33

32:                                               ; preds = %29
  call void (ptr, i32, ptr, ...) @test_info(ptr noundef nonnull @.str.11, i32 noundef 181, ptr noundef nonnull @.str.35) #4
  br label %33

33:                                               ; preds = %29, %0, %32, %28, %24, %18
  %.0 = phi i32 [ 0, %18 ], [ 0, %24 ], [ 0, %28 ], [ 0, %32 ], [ 0, %0 ], [ 1, %29 ]
  call void @ossl_sa_free(ptr noundef %2) #4
  call void @llvm.lifetime.end.p0(i64 32, ptr nonnull %1) #4
  ret i32 %.0
}